Certificate:
    Data:
        Version: 1 (0x0)
        Serial Number:
            19:72:96:d8:8b:da:2c:2c:9b:fc:a2:18:23:0a:76:21:cd:7e:78:64
        Signature Algorithm: sha256WithRSAEncryption
        Issuer: C = US, ST = California, L = Santa Clara, O = Beyond Aggravated, CN = localhost
        Validity
            Not Before: Aug 21 16:43:57 2019 GMT
            Not After : Aug 20 16:43:57 2020 GMT
        Subject: C = US, ST = California, L = Santa Clara, O = Beyond Aggravated, CN = localhost
        Subject Public Key Info:
            Public Key Algorithm: rsaEncryption
                RSA Public-Key: (2048 bit)
                Modulus:
                    00:db:29:08:b3:c2:ff:fe:8b:35:92:00:ae:6c:52:
                    61:1a:e8:8d:23:e2:8b:30:12:37:4b:2f:76:1d:77:
                    ef:a0:60:a7:d2:a3:53:0d:4d:15:08:4c:72:af:88:
                    a1:b1:89:8d:79:71:bd:3a:91:89:76:9f:dc:fd:1d:
                    24:a6:55:31:d7:32:73:d0:0e:98:23:70:1f:c1:fc:
                    e8:e9:99:4c:7c:15:dc:c7:55:56:a3:c7:d9:e6:25:
                    fa:8b:56:6b:67:8b:87:c0:34:27:b7:8d:ff:19:fd:
                    72:5e:f1:b4:6f:2e:52:a5:9c:ff:44:27:6b:b6:e9:
                    e2:45:0e:ab:bd:0c:e0:a9:f5:34:6b:e5:2e:1b:53:
                    ea:3a:3a:0c:9a:e9:65:38:fa:e1:34:c1:d9:ce:36:
                    d1:ef:3a:2b:a5:01:59:20:d6:28:f2:e6:6a:b5:75:
                    98:3a:d8:a3:b8:31:4a:ed:73:a8:bb:2c:62:2b:7f:
                    5f:c5:dd:8b:c1:12:43:45:91:7b:54:16:35:4c:4c:
                    93:ba:8b:15:34:21:d5:f4:94:1a:fe:9a:a6:35:8b:
                    2e:b1:8a:f4:37:98:74:7b:1d:5d:7d:ad:b5:10:25:
                    0d:4b:65:94:67:2d:ca:98:c2:29:cd:16:72:0e:19:
                    19:f4:97:66:84:e5:57:69:3c:68:4c:a3:60:5c:6e:
                    55:b9
                Exponent: 65537 (0x10001)
    Signature Algorithm: sha256WithRSAEncryption
         c2:8e:89:2e:7d:3d:45:9b:13:6c:ca:0c:78:26:3a:25:74:4c:
         09:f7:fc:98:a3:77:81:46:a8:e2:86:fc:af:a7:66:66:31:83:
         ce:10:4a:e2:87:34:e0:e6:76:f2:3f:f9:56:69:d8:9c:b8:18:
         d2:0f:fe:33:36:d8:ee:10:b2:df:98:1e:7b:fa:eb:e9:9e:78:
         d2:6f:6f:62:d3:ab:00:ac:aa:ba:83:b1:ad:2e:37:49:c8:99:
         32:3a:6e:2f:53:ca:4f:b0:af:a3:b6:fa:07:6e:b1:f3:55:92:
         0c:b9:26:b3:63:4c:96:d5:19:57:d0:32:6a:5e:b5:70:86:4e:
         12:c5:1d:f4:94:1e:b1:8a:dc:86:86:2a:26:39:6a:5a:11:9c:
         11:ef:c6:cb:43:ba:ad:3b:7e:65:a1:c7:c5:2d:d1:c0:26:90:
         4c:37:f0:ab:77:76:67:e5:a8:cc:c9:4e:90:51:af:aa:17:e5:
         23:bb:8d:bb:18:80:16:5c:08:ae:f5:a9:9f:f9:3f:fd:fd:77:
         c7:e8:c5:7c:d2:ce:51:43:e7:ce:01:4f:c6:d5:8d:bf:ec:8d:
         95:55:fc:29:21:b9:9a:38:01:ac:32:ae:6b:93:fc:b3:ee:f3:
         ce:6a:29:ad:09:3a:fb:f4:a4:53:28:9e:4b:a1:a0:3c:ef:da:
         50:5f:65:3e
-----BEGIN CERTIFICATE-----
MIIDVzCCAj8CFBlyltiL2iwsm/yiGCMKdiHNfnhkMA0GCSqGSIb3DQEBCwUAMGgx
CzAJBgNVBAYTAlVTMRMwEQYDVQQIDApDYWxpZm9ybmlhMRQwEgYDVQQHDAtTYW50
YSBDbGFyYTEaMBgGA1UECgwRQmV5b25kIEFnZ3JhdmF0ZWQxEjAQBgNVBAMMCWxv
Y2FsaG9zdDAeFw0xOTA4MjExNjQzNTdaFw0yMDA4MjAxNjQzNTdaMGgxCzAJBgNV
BAYTAlVTMRMwEQYDVQQIDApDYWxpZm9ybmlhMRQwEgYDVQQHDAtTYW50YSBDbGFy
YTEaMBgGA1UECgwRQmV5b25kIEFnZ3JhdmF0ZWQxEjAQBgNVBAMMCWxvY2FsaG9z
dDCCASIwDQYJKoZIhvcNAQEBBQADggEPADCCAQoCggEBANspCLPC//6LNZIArmxS
YRrojSPiizASN0svdh1376Bgp9KjUw1NFQhMcq+IobGJjXlxvTqRiXaf3P0dJKZV
Mdcyc9AOmCNwH8H86OmZTHwV3MdVVqPH2eYl+otWa2eLh8A0J7eN/xn9cl7xtG8u
UqWc/0Qna7bp4kUOq70M4Kn1NGvlLhtT6jo6DJrpZTj64TTB2c420e86K6UBWSDW
KPLmarV1mDrYo7gxSu1zqLssYit/X8Xdi8ESQ0WRe1QWNUxMk7qLFTQh1fSUGv6a
pjWLLrGK9DeYdHsdXX2ttRAlDUtllGctypjCKc0Wcg4ZGfSXZoTlV2k8aEyjYFxu
VbkCAwEAATANBgkqhkiG9w0BAQsFAAOCAQEAwo6JLn09RZsTbMoMeCY6JXRMCff8
mKN3gUao4ob8r6dmZjGDzhBK4oc04OZ28j/5VmnYnLgY0g/+MzbY7hCy35gee/rr
6Z540m9vYtOrAKyquoOxrS43SciZMjpuL1PKT7Cvo7b6B26x81WSDLkms2NMltUZ
V9Ayal61cIZOEsUd9JQesYrchoYqJjlqWhGcEe/Gy0O6rTt+ZaHHxS3RwCaQTDfw
q3d2Z+WozMlOkFGvqhflI7uNuxiAFlwIrvWpn/k//f13x+jFfNLOUUPnzgFPxtWN
v+yNlVX8KSG5mjgBrDKua5P8s+7zzmoprQk6+/SkUyieS6GgPO/aUF9lPg==
-----END CERTIFICATE-----
