Certificate:
    Data:
        Version: 1 (0x0)
        Serial Number: 12406396960093165066 (0xac2c604da4d6d60a)
    Signature Algorithm: sha256WithRSAEncryption
        Issuer: C=US, ST=California, L=Santa Clara, O=Beyond Aggravated, CN=localhost
        Validity
            Not Before: May  8 20:11:49 2019 GMT
            Not After : May  7 20:11:49 2020 GMT
        Subject: C=US, ST=California, L=Santa Clara, O=Beyond Aggravated, CN=localhost
        Subject Public Key Info:
            Public Key Algorithm: rsaEncryption
                Public-Key: (2048 bit)
                Modulus:
                    00:f7:73:d1:3a:26:d4:d4:ae:8f:0c:58:16:11:b6:
                    32:7a:93:4d:4e:45:f4:4e:4e:c2:73:bd:b2:f9:57:
                    72:15:e8:cc:94:a8:62:9b:85:1b:8d:d9:23:ff:5e:
                    c5:59:a1:40:a6:78:5b:02:54:5f:be:1b:79:8b:99:
                    87:ad:75:4b:5b:fd:9c:08:80:5f:ec:37:96:96:a2:
                    1f:ff:60:34:7f:4f:69:1e:a4:c8:e4:ef:79:2f:43:
                    b4:7a:87:96:c1:e6:f4:08:6e:96:cf:fa:98:89:47:
                    54:bb:1f:19:57:12:0c:32:2e:e5:e6:2a:05:4d:17:
                    ab:54:58:9b:7f:bd:11:4b:44:38:b3:d0:19:f7:1a:
                    49:44:e7:23:a0:24:67:9e:53:70:98:8a:86:ad:02:
                    22:84:e9:bf:f2:3e:ee:69:70:ce:ca:8f:8b:67:f6:
                    1b:b9:08:e3:b6:f3:d5:a8:97:7a:1d:f8:8d:e9:4a:
                    47:7d:b5:7c:a9:75:fc:35:b7:17:40:8b:4a:3d:3f:
                    bb:88:0c:80:d2:20:3c:1f:ed:1c:82:a3:1a:23:67:
                    bc:94:c4:ed:90:d2:57:7e:28:52:6a:8a:84:a9:14:
                    8b:1c:23:14:75:05:a4:c8:ac:96:92:09:4e:c7:9f:
                    cd:a2:84:e0:d2:da:e7:b8:39:aa:00:27:6a:87:f0:
                    9b:55
                Exponent: 65537 (0x10001)
    Signature Algorithm: sha256WithRSAEncryption
         f4:3e:ed:b5:ef:cb:f4:52:c7:d9:60:48:08:8e:fd:1e:5e:a7:
         74:a2:db:15:94:7b:48:58:8a:f9:90:d5:b5:f6:f3:41:69:0c:
         ff:2d:65:7b:40:90:88:69:c9:67:62:4b:46:98:04:cc:92:2c:
         30:c3:88:39:76:c5:45:9f:c5:93:b4:36:73:9c:54:9d:7b:8d:
         9d:ac:27:18:6a:2a:4b:16:34:c4:cb:6f:b7:42:af:b9:14:4b:
         6f:85:3a:e5:f0:47:e6:1e:6f:be:ee:a7:67:b9:e2:55:cb:ba:
         22:95:59:eb:c5:01:45:5c:f1:78:60:ab:fb:0d:cf:6a:f0:b7:
         98:86:5c:57:0b:09:7a:04:80:bc:07:9d:de:cb:05:1f:32:e8:
         8b:04:7d:55:b9:51:54:96:a4:54:0f:38:37:5c:62:d5:60:69:
         66:28:ed:36:20:85:98:f3:13:26:bc:54:87:3b:1e:01:e5:1f:
         fd:54:8f:dc:af:87:e7:98:da:12:e8:2f:0b:a4:65:15:7f:0a:
         73:1b:4a:4f:0b:2e:04:d8:b8:47:8b:7c:fb:92:9c:24:c4:46:
         bc:9d:30:4c:91:70:5d:c7:96:30:ad:86:05:7b:61:1b:7c:71:
         0a:2f:b1:56:41:be:e3:11:25:8c:e5:e2:13:37:7a:66:b4:d0:
         fc:7b:48:3f
-----BEGIN CERTIFICATE-----
MIIDTDCCAjQCCQCsLGBNpNbWCjANBgkqhkiG9w0BAQsFADBoMQswCQYDVQQGEwJV
UzETMBEGA1UECAwKQ2FsaWZvcm5pYTEUMBIGA1UEBwwLU2FudGEgQ2xhcmExGjAY
BgNVBAoMEUJleW9uZCBBZ2dyYXZhdGVkMRIwEAYDVQQDDAlsb2NhbGhvc3QwHhcN
MTkwNTA4MjAxMTQ5WhcNMjAwNTA3MjAxMTQ5WjBoMQswCQYDVQQGEwJVUzETMBEG
A1UECAwKQ2FsaWZvcm5pYTEUMBIGA1UEBwwLU2FudGEgQ2xhcmExGjAYBgNVBAoM
EUJleW9uZCBBZ2dyYXZhdGVkMRIwEAYDVQQDDAlsb2NhbGhvc3QwggEiMA0GCSqG
SIb3DQEBAQUAA4IBDwAwggEKAoIBAQD3c9E6JtTUro8MWBYRtjJ6k01ORfROTsJz
vbL5V3IV6MyUqGKbhRuN2SP/XsVZoUCmeFsCVF++G3mLmYetdUtb/ZwIgF/sN5aW
oh//YDR/T2kepMjk73kvQ7R6h5bB5vQIbpbP+piJR1S7HxlXEgwyLuXmKgVNF6tU
WJt/vRFLRDiz0Bn3GklE5yOgJGeeU3CYioatAiKE6b/yPu5pcM7Kj4tn9hu5COO2
89Wol3od+I3pSkd9tXypdfw1txdAi0o9P7uIDIDSIDwf7RyCoxojZ7yUxO2Q0ld+
KFJqioSpFIscIxR1BaTIrJaSCU7Hn82ihODS2ue4OaoAJ2qH8JtVAgMBAAEwDQYJ
KoZIhvcNAQELBQADggEBAPQ+7bXvy/RSx9lgSAiO/R5ep3Si2xWUe0hYivmQ1bX2
80FpDP8tZXtAkIhpyWdiS0aYBMySLDDDiDl2xUWfxZO0NnOcVJ17jZ2sJxhqKksW
NMTLb7dCr7kUS2+FOuXwR+Yeb77up2e54lXLuiKVWevFAUVc8Xhgq/sNz2rwt5iG
XFcLCXoEgLwHnd7LBR8y6IsEfVW5UVSWpFQPODdcYtVgaWYo7TYghZjzEya8VIc7
HgHlH/1Uj9yvh+eY2hLoLwukZRV/CnMbSk8LLgTYuEeLfPuSnCTERrydMEyRcF3H
ljCthgV7YRt8cQovsVZBvuMRJYzl4hM3ema00Px7SD8=
-----END CERTIFICATE-----
