Certificate:
    Data:
        Version: 1 (0x0)
        Serial Number:
            15:c1:c9:dc:34:7b:fe:e5:df:57:7d:7f:33:bb:be:b0:71:03:0e:32
        Signature Algorithm: sha256WithRSAEncryption
        Issuer: C = US, ST = California, L = Santa Clara, O = Beyond Aggravated, CN = localhost
        Validity
            Not Before: May  7 21:33:01 2020 GMT
            Not After : May  7 21:33:01 2021 GMT
        Subject: C = US, ST = California, L = Santa Clara, O = Beyond Aggravated, CN = localhost
        Subject Public Key Info:
            Public Key Algorithm: rsaEncryption
                RSA Public-Key: (2048 bit)
                Modulus:
                    00:f7:73:d1:3a:26:d4:d4:ae:8f:0c:58:16:11:b6:
                    32:7a:93:4d:4e:45:f4:4e:4e:c2:73:bd:b2:f9:57:
                    72:15:e8:cc:94:a8:62:9b:85:1b:8d:d9:23:ff:5e:
                    c5:59:a1:40:a6:78:5b:02:54:5f:be:1b:79:8b:99:
                    87:ad:75:4b:5b:fd:9c:08:80:5f:ec:37:96:96:a2:
                    1f:ff:60:34:7f:4f:69:1e:a4:c8:e4:ef:79:2f:43:
                    b4:7a:87:96:c1:e6:f4:08:6e:96:cf:fa:98:89:47:
                    54:bb:1f:19:57:12:0c:32:2e:e5:e6:2a:05:4d:17:
                    ab:54:58:9b:7f:bd:11:4b:44:38:b3:d0:19:f7:1a:
                    49:44:e7:23:a0:24:67:9e:53:70:98:8a:86:ad:02:
                    22:84:e9:bf:f2:3e:ee:69:70:ce:ca:8f:8b:67:f6:
                    1b:b9:08:e3:b6:f3:d5:a8:97:7a:1d:f8:8d:e9:4a:
                    47:7d:b5:7c:a9:75:fc:35:b7:17:40:8b:4a:3d:3f:
                    bb:88:0c:80:d2:20:3c:1f:ed:1c:82:a3:1a:23:67:
                    bc:94:c4:ed:90:d2:57:7e:28:52:6a:8a:84:a9:14:
                    8b:1c:23:14:75:05:a4:c8:ac:96:92:09:4e:c7:9f:
                    cd:a2:84:e0:d2:da:e7:b8:39:aa:00:27:6a:87:f0:
                    9b:55
                Exponent: 65537 (0x10001)
    Signature Algorithm: sha256WithRSAEncryption
         49:9c:74:40:63:51:e4:34:fc:bd:48:04:05:33:03:d4:e2:86:
         de:b1:70:cd:72:c8:d4:bb:27:e6:72:0c:48:69:0b:ed:a2:25:
         c7:b0:fc:95:b7:6f:cb:43:92:f8:28:3c:8c:4d:b9:eb:28:8c:
         ed:c6:53:17:4e:eb:2b:05:1e:23:6b:ff:c0:3a:d7:28:ff:6a:
         7c:c8:68:9c:80:ab:6d:0c:8a:95:9e:89:e2:12:d5:57:dc:02:
         91:84:27:32:ac:12:fa:e4:87:d6:5d:57:fa:aa:f7:64:27:1a:
         9a:04:d9:da:1a:e1:24:5c:b8:1c:47:a8:0b:8a:9d:2f:4f:ae:
         33:63:61:ae:39:8f:06:fa:8c:ab:d8:58:59:ed:e7:01:11:26:
         46:34:80:c4:13:1a:c2:34:e1:95:d2:ea:40:2a:28:ca:fb:4c:
         b2:49:27:40:0c:cf:b5:ef:ea:bc:fe:24:59:1a:48:f8:a4:04:
         bf:d4:5c:f2:22:3d:3c:d0:85:f7:e5:b8:ce:5e:a9:23:24:43:
         45:56:16:c7:70:b5:3d:27:67:89:a4:dc:ff:20:d0:14:be:54:
         6e:e6:79:ba:35:0e:76:f3:32:d7:20:25:71:38:83:56:8f:8a:
         7b:bc:9b:00:af:45:84:40:71:30:f1:0b:c9:31:53:63:41:95:
         28:8e:3a:40
-----BEGIN CERTIFICATE-----
MIIDVzCCAj8CFBXBydw0e/7l31d9fzO7vrBxAw4yMA0GCSqGSIb3DQEBCwUAMGgx
CzAJBgNVBAYTAlVTMRMwEQYDVQQIDApDYWxpZm9ybmlhMRQwEgYDVQQHDAtTYW50
YSBDbGFyYTEaMBgGA1UECgwRQmV5b25kIEFnZ3JhdmF0ZWQxEjAQBgNVBAMMCWxv
Y2FsaG9zdDAeFw0yMDA1MDcyMTMzMDFaFw0yMTA1MDcyMTMzMDFaMGgxCzAJBgNV
BAYTAlVTMRMwEQYDVQQIDApDYWxpZm9ybmlhMRQwEgYDVQQHDAtTYW50YSBDbGFy
YTEaMBgGA1UECgwRQmV5b25kIEFnZ3JhdmF0ZWQxEjAQBgNVBAMMCWxvY2FsaG9z
dDCCASIwDQYJKoZIhvcNAQEBBQADggEPADCCAQoCggEBAPdz0Tom1NSujwxYFhG2
MnqTTU5F9E5OwnO9svlXchXozJSoYpuFG43ZI/9exVmhQKZ4WwJUX74beYuZh611
S1v9nAiAX+w3lpaiH/9gNH9PaR6kyOTveS9DtHqHlsHm9Ahuls/6mIlHVLsfGVcS
DDIu5eYqBU0Xq1RYm3+9EUtEOLPQGfcaSUTnI6AkZ55TcJiKhq0CIoTpv/I+7mlw
zsqPi2f2G7kI47bz1aiXeh34jelKR321fKl1/DW3F0CLSj0/u4gMgNIgPB/tHIKj
GiNnvJTE7ZDSV34oUmqKhKkUixwjFHUFpMislpIJTsefzaKE4NLa57g5qgAnaofw
m1UCAwEAATANBgkqhkiG9w0BAQsFAAOCAQEASZx0QGNR5DT8vUgEBTMD1OKG3rFw
zXLI1Lsn5nIMSGkL7aIlx7D8lbdvy0OS+Cg8jE256yiM7cZTF07rKwUeI2v/wDrX
KP9qfMhonICrbQyKlZ6J4hLVV9wCkYQnMqwS+uSH1l1X+qr3ZCcamgTZ2hrhJFy4
HEeoC4qdL0+uM2NhrjmPBvqMq9hYWe3nAREmRjSAxBMawjThldLqQCooyvtMskkn
QAzPte/qvP4kWRpI+KQEv9Rc8iI9PNCF9+W4zl6pIyRDRVYWx3C1PSdniaTc/yDQ
FL5UbuZ5ujUOdvMy1yAlcTiDVo+Ke7ybAK9FhEBxMPELyTFTY0GVKI46QA==
-----END CERTIFICATE-----
