Certificate:
    Data:
        Version: 1 (0x0)
        Serial Number:
            5b:12:83:24:00:64:74:65:b5:10:1d:8b:d4:ab:2b:66:47:45:ad:7f
        Signature Algorithm: sha256WithRSAEncryption
        Issuer: C = US, ST = California, L = Santa Clara, O = Beyond Aggravated, CN = localhost
        Validity
            Not Before: May  8 06:50:00 2021 GMT
            Not After : Feb 20 06:50:00 2295 GMT
        Subject: C = US, ST = California, L = Santa Clara, O = Beyond Aggravated, CN = localhost
        Subject Public Key Info:
            Public Key Algorithm: rsaEncryption
                RSA Public-Key: (2048 bit)
                Modulus:
                    00:c6:28:c7:29:e3:65:ee:79:58:c2:7d:df:e8:21:
                    bc:30:fd:d7:0d:52:37:6d:ce:2f:f9:72:09:12:51:
                    f6:9a:b3:73:f0:05:1d:d0:8f:45:a0:95:44:74:20:
                    e7:44:83:b5:55:be:ec:37:f5:a7:f5:fc:4c:41:0b:
                    f6:45:e1:c4:e7:a9:11:df:a0:9a:d7:d1:b9:54:5a:
                    3b:f3:d8:2d:ef:6e:bc:89:ba:55:ed:04:35:d7:b6:
                    a8:78:47:70:ee:4a:4e:ba:42:94:1b:ce:d0:ed:b6:
                    56:96:c6:77:15:7f:e7:c5:2b:f5:1e:7b:f9:04:00:
                    71:a3:4b:b2:33:cb:6f:e4:a1:97:5b:04:7c:6e:c9:
                    85:08:21:2b:f2:2d:80:b6:09:4e:9f:25:52:57:71:
                    32:d7:c5:5b:fe:68:2d:f8:4e:18:13:a5:a8:6d:30:
                    22:3f:c5:1d:10:a4:cf:76:70:66:b3:d2:1c:1c:d9:
                    27:4c:1f:ae:c7:dd:74:c4:31:f8:cf:d7:d6:bf:cf:
                    b8:06:9e:26:1f:8d:f1:bd:ba:ed:18:91:33:0e:5d:
                    71:43:e3:2b:cd:ce:c7:93:41:49:a9:49:53:e9:61:
                    ee:c8:cf:53:93:b8:ec:a6:68:57:c6:08:2d:79:cc:
                    b4:08:60:7f:85:2a:3f:fe:ea:eb:52:ed:8b:11:40:
                    01:81
                Exponent: 65537 (0x10001)
    Signature Algorithm: sha256WithRSAEncryption
         4a:34:a5:39:4b:a1:e6:3b:a6:ad:60:b1:66:05:f0:64:da:6b:
         3f:66:40:cd:1e:d0:f1:9c:a2:e6:b1:7d:c2:16:d8:51:23:79:
         86:cf:5a:04:68:cc:d8:6f:61:b6:b9:f0:f1:ce:1e:3f:c7:60:
         cc:e2:27:df:46:08:f6:92:71:d2:1a:5b:a7:dc:d6:02:95:92:
         cc:d7:cf:ca:4e:95:c5:db:a6:f2:72:78:b1:54:65:70:db:a8:
         c6:d1:61:d0:4d:27:42:4b:95:4b:cf:c0:92:83:53:bf:e3:ce:
         da:10:2e:6c:2a:da:1e:2d:29:38:28:ca:43:17:30:f4:f8:4b:
         1b:91:ff:f5:6b:0d:15:cb:1b:31:8c:74:67:c4:83:21:78:ae:
         1c:52:dd:f2:e4:8e:6a:20:a4:b6:a8:ad:16:f5:9b:96:af:51:
         2b:76:46:0a:09:5b:a6:64:ac:55:b8:c8:47:54:e7:24:eb:32:
         c2:e6:56:63:79:f9:05:b5:3b:72:2d:ed:a7:28:8b:d7:35:67:
         07:ca:e2:aa:98:b7:da:7e:11:15:4a:52:8f:21:d8:3d:d1:0a:
         3d:f9:36:38:6f:04:3c:b0:c4:55:71:59:67:9c:28:46:bc:3b:
         66:78:15:f3:e3:1c:32:16:0f:0f:ce:1b:f0:6b:ce:8f:97:03:
         08:4a:2f:e6
-----BEGIN CERTIFICATE-----
MIIDWTCCAkECFFsSgyQAZHRltRAdi9SrK2ZHRa1/MA0GCSqGSIb3DQEBCwUAMGgx
CzAJBgNVBAYTAlVTMRMwEQYDVQQIDApDYWxpZm9ybmlhMRQwEgYDVQQHDAtTYW50
YSBDbGFyYTEaMBgGA1UECgwRQmV5b25kIEFnZ3JhdmF0ZWQxEjAQBgNVBAMMCWxv
Y2FsaG9zdDAgFw0yMTA1MDgwNjUwMDBaGA8yMjk1MDIyMDA2NTAwMFowaDELMAkG
A1UEBhMCVVMxEzARBgNVBAgMCkNhbGlmb3JuaWExFDASBgNVBAcMC1NhbnRhIENs
YXJhMRowGAYDVQQKDBFCZXlvbmQgQWdncmF2YXRlZDESMBAGA1UEAwwJbG9jYWxo
b3N0MIIBIjANBgkqhkiG9w0BAQEFAAOCAQ8AMIIBCgKCAQEAxijHKeNl7nlYwn3f
6CG8MP3XDVI3bc4v+XIJElH2mrNz8AUd0I9FoJVEdCDnRIO1Vb7sN/Wn9fxMQQv2
ReHE56kR36Ca19G5VFo789gt7268ibpV7QQ117aoeEdw7kpOukKUG87Q7bZWlsZ3
FX/nxSv1Hnv5BABxo0uyM8tv5KGXWwR8bsmFCCEr8i2AtglOnyVSV3Ey18Vb/mgt
+E4YE6WobTAiP8UdEKTPdnBms9IcHNknTB+ux910xDH4z9fWv8+4Bp4mH43xvbrt
GJEzDl1xQ+Mrzc7Hk0FJqUlT6WHuyM9Tk7jspmhXxggtecy0CGB/hSo//urrUu2L
EUABgQIDAQABMA0GCSqGSIb3DQEBCwUAA4IBAQBKNKU5S6HmO6atYLFmBfBk2ms/
ZkDNHtDxnKLmsX3CFthRI3mGz1oEaMzYb2G2ufDxzh4/x2DM4iffRgj2knHSGlun
3NYClZLM18/KTpXF26bycnixVGVw26jG0WHQTSdCS5VLz8CSg1O/487aEC5sKtoe
LSk4KMpDFzD0+Esbkf/1aw0VyxsxjHRnxIMheK4cUt3y5I5qIKS2qK0W9ZuWr1Er
dkYKCVumZKxVuMhHVOck6zLC5lZjefkFtTtyLe2nKIvXNWcHyuKqmLfafhEVSlKP
Idg90Qo9+TY4bwQ8sMRVcVlnnChGvDtmeBXz4xwyFg8Pzhvwa86PlwMISi/m
-----END CERTIFICATE-----
